; Function Attrs: mustprogress nounwind uwtable
define internal fastcc void @_ZNSt6vectorIN5Yosys7hashlib4dictINS0_5RTLIL8IdStringEN12_GLOBAL__N_17LUTTypeENS1_8hash_opsIS4_EEE7entry_tESaISA_EED2Ev(ptr nocapture noundef nonnull readonly align 8 dereferenceable(24) %0) unnamed_addr #3 align 2 personality ptr @__gxx_personality_v0 {
  %2 = load ptr, ptr %0, align 8
  %3 = getelementptr inbounds i8, ptr %0, i64 8
  %4 = load ptr, ptr %3, align 8
  %.not4.i.i.i = icmp eq ptr %2, %4
  br i1 %.not4.i.i.i, label %_ZSt8_DestroyIPN5Yosys7hashlib4dictINS0_5RTLIL8IdStringEN12_GLOBAL__N_17LUTTypeENS1_8hash_opsIS4_EEE7entry_tESA_EvT_SC_RSaIT0_E.exit, label %.lr.ph.i.i.i

.lr.ph.i.i.i:                                     ; preds = %1, %_ZSt8_DestroyIN5Yosys7hashlib4dictINS0_5RTLIL8IdStringEN12_GLOBAL__N_17LUTTypeENS1_8hash_opsIS4_EEE7entry_tEEvPT_.exit.i.i.i
  %.05.i.i.i = phi ptr [ %22, %_ZSt8_DestroyIN5Yosys7hashlib4dictINS0_5RTLIL8IdStringEN12_GLOBAL__N_17LUTTypeENS1_8hash_opsIS4_EEE7entry_tEEvPT_.exit.i.i.i ], [ %2, %1 ]
  %5 = getelementptr inbounds i8, ptr %.05.i.i.i, i64 8
  tail call fastcc void @_ZN12_GLOBAL__N_17LUTTypeD2Ev(ptr noundef nonnull align 8 dereferenceable(60) %5) #18
  %6 = load i32, ptr %.05.i.i.i, align 4
  %7 = load i8, ptr @_ZN5Yosys5RTLIL8IdString17destruct_guard_okE, align 1
  %8 = and i8 %7, 1
  %9 = icmp ne i8 %8, 0
  %10 = icmp ne i32 %6, 0
  %or.cond.i.i.i.i.i.i.i.i = and i1 %10, %9
  br i1 %or.cond.i.i.i.i.i.i.i.i, label %11, label %_ZSt8_DestroyIN5Yosys7hashlib4dictINS0_5RTLIL8IdStringEN12_GLOBAL__N_17LUTTypeENS1_8hash_opsIS4_EEE7entry_tEEvPT_.exit.i.i.i

11:                                               ; preds = %.lr.ph.i.i.i
  %12 = sext i32 %6 to i64
  %13 = load ptr, ptr @_ZN5Yosys5RTLIL8IdString24global_refcount_storage_E, align 8
  %14 = getelementptr inbounds i32, ptr %13, i64 %12
  %15 = load i32, ptr %14, align 4
  %16 = add nsw i32 %15, -1
  store i32 %16, ptr %14, align 4
  %17 = icmp sgt i32 %15, 1
  br i1 %17, label %_ZSt8_DestroyIN5Yosys7hashlib4dictINS0_5RTLIL8IdStringEN12_GLOBAL__N_17LUTTypeENS1_8hash_opsIS4_EEE7entry_tEEvPT_.exit.i.i.i, label %18

18:                                               ; preds = %11
  invoke void @_ZN5Yosys5RTLIL8IdString14free_referenceEi(i32 noundef %6)
          to label %_ZSt8_DestroyIN5Yosys7hashlib4dictINS0_5RTLIL8IdStringEN12_GLOBAL__N_17LUTTypeENS1_8hash_opsIS4_EEE7entry_tEEvPT_.exit.i.i.i unwind label %19

19:                                               ; preds = %18
  %20 = landingpad { ptr, i32 }
          catch ptr null
  %21 = extractvalue { ptr, i32 } %20, 0
  tail call void @__clang_call_terminate(ptr %21) #22
  unreachable

_ZSt8_DestroyIN5Yosys7hashlib4dictINS0_5RTLIL8IdStringEN12_GLOBAL__N_17LUTTypeENS1_8hash_opsIS4_EEE7entry_tEEvPT_.exit.i.i.i: ; preds = %18, %11, %.lr.ph.i.i.i
  %22 = getelementptr inbounds i8, ptr %.05.i.i.i, i64 80
  %.not.i.i.i = icmp eq ptr %22, %4
  br i1 %.not.i.i.i, label %_ZSt8_DestroyIPN5Yosys7hashlib4dictINS0_5RTLIL8IdStringEN12_GLOBAL__N_17LUTTypeENS1_8hash_opsIS4_EEE7entry_tESA_EvT_SC_RSaIT0_E.exitthread-pre-split, label %.lr.ph.i.i.i, !llvm.loop !99

_ZSt8_DestroyIPN5Yosys7hashlib4dictINS0_5RTLIL8IdStringEN12_GLOBAL__N_17LUTTypeENS1_8hash_opsIS4_EEE7entry_tESA_EvT_SC_RSaIT0_E.exitthread-pre-split: ; preds = %_ZSt8_DestroyIN5Yosys7hashlib4dictINS0_5RTLIL8IdStringEN12_GLOBAL__N_17LUTTypeENS1_8hash_opsIS4_EEE7entry_tEEvPT_.exit.i.i.i
  %.val.pr = load ptr, ptr %0, align 8
  br label %_ZSt8_DestroyIPN5Yosys7hashlib4dictINS0_5RTLIL8IdStringEN12_GLOBAL__N_17LUTTypeENS1_8hash_opsIS4_EEE7entry_tESA_EvT_SC_RSaIT0_E.exit

_ZSt8_DestroyIPN5Yosys7hashlib4dictINS0_5RTLIL8IdStringEN12_GLOBAL__N_17LUTTypeENS1_8hash_opsIS4_EEE7entry_tESA_EvT_SC_RSaIT0_E.exit: ; preds = %_ZSt8_DestroyIPN5Yosys7hashlib4dictINS0_5RTLIL8IdStringEN12_GLOBAL__N_17LUTTypeENS1_8hash_opsIS4_EEE7entry_tESA_EvT_SC_RSaIT0_E.exitthread-pre-split, %1
  %.val = phi ptr [ %.val.pr, %_ZSt8_DestroyIPN5Yosys7hashlib4dictINS0_5RTLIL8IdStringEN12_GLOBAL__N_17LUTTypeENS1_8hash_opsIS4_EEE7entry_tESA_EvT_SC_RSaIT0_E.exitthread-pre-split ], [ %2, %1 ]
  %.not.i.i = icmp eq ptr %.val, null
  br i1 %.not.i.i, label %_ZNSt12_Vector_baseIN5Yosys7hashlib4dictINS0_5RTLIL8IdStringEN12_GLOBAL__N_17LUTTypeENS1_8hash_opsIS4_EEE7entry_tESaISA_EED2Ev.exit, label %23

23:                                               ; preds = %_ZSt8_DestroyIPN5Yosys7hashlib4dictINS0_5RTLIL8IdStringEN12_GLOBAL__N_17LUTTypeENS1_8hash_opsIS4_EEE7entry_tESA_EvT_SC_RSaIT0_E.exit
  tail call void @_ZdlPv(ptr noundef nonnull %.val) #19
  br label %_ZNSt12_Vector_baseIN5Yosys7hashlib4dictINS0_5RTLIL8IdStringEN12_GLOBAL__N_17LUTTypeENS1_8hash_opsIS4_EEE7entry_tESaISA_EED2Ev.exit

_ZNSt12_Vector_baseIN5Yosys7hashlib4dictINS0_5RTLIL8IdStringEN12_GLOBAL__N_17LUTTypeENS1_8hash_opsIS4_EEE7entry_tESaISA_EED2Ev.exit: ; preds = %_ZSt8_DestroyIPN5Yosys7hashlib4dictINS0_5RTLIL8IdStringEN12_GLOBAL__N_17LUTTypeENS1_8hash_opsIS4_EEE7entry_tESA_EvT_SC_RSaIT0_E.exit, %23
  ret void
}